
MY_RTOS.elf:     file format elf32-littlearm

Sections:
Idx Name          Size      VMA       LMA       File off  Algn
  0 .isr_vector   00000188  08000000  08000000  00001000  2**0
                  CONTENTS, ALLOC, LOAD, READONLY, DATA
  1 .text         000006e4  08000188  08000188  00001188  2**2
                  CONTENTS, ALLOC, LOAD, READONLY, CODE
  2 .rodata       00000124  0800086c  0800086c  0000186c  2**0
                  CONTENTS, ALLOC, LOAD, READONLY, DATA
  3 .ARM.extab    00000000  08000990  08000990  00002054  2**0
                  CONTENTS, READONLY
  4 .ARM          00000000  08000990  08000990  00002054  2**0
                  CONTENTS, READONLY
  5 .preinit_array 00000000  08000990  08000990  00002054  2**0
                  CONTENTS, ALLOC, LOAD, DATA
  6 .init_array   00000004  08000990  08000990  00001990  2**2
                  CONTENTS, ALLOC, LOAD, READONLY, DATA
  7 .fini_array   00000004  08000994  08000994  00001994  2**2
                  CONTENTS, ALLOC, LOAD, READONLY, DATA
  8 .data         00000054  20000000  08000998  00002000  2**2
                  CONTENTS, ALLOC, LOAD, DATA
  9 .ccmram       00000000  10000000  10000000  00002054  2**0
                  CONTENTS
 10 .bss          00000070  20000054  20000054  00002054  2**2
                  ALLOC
 11 ._user_heap_stack 00000604  200000c4  200000c4  00002054  2**0
                  ALLOC
 12 .ARM.attributes 0000002a  00000000  00000000  00002054  2**0
                  CONTENTS, READONLY
 13 .debug_info   00001345  00000000  00000000  0000207e  2**0
                  CONTENTS, READONLY, DEBUGGING, OCTETS
 14 .debug_abbrev 000006bd  00000000  00000000  000033c3  2**0
                  CONTENTS, READONLY, DEBUGGING, OCTETS
 15 .debug_loclists 00000518  00000000  00000000  00003a80  2**0
                  CONTENTS, READONLY, DEBUGGING, OCTETS
 16 .debug_aranges 00000298  00000000  00000000  00003f98  2**3
                  CONTENTS, READONLY, DEBUGGING, OCTETS
 17 .debug_rnglists 0000020d  00000000  00000000  00004230  2**0
                  CONTENTS, READONLY, DEBUGGING, OCTETS
 18 .debug_macro  0000274a  00000000  00000000  0000443d  2**0
                  CONTENTS, READONLY, DEBUGGING, OCTETS
 19 .debug_line   00002189  00000000  00000000  00006b87  2**0
                  CONTENTS, READONLY, DEBUGGING, OCTETS
 20 .debug_str    00009307  00000000  00000000  00008d10  2**0
                  CONTENTS, READONLY, DEBUGGING, OCTETS
 21 .comment      00000043  00000000  00000000  00012017  2**0
                  CONTENTS, READONLY
 22 .debug_frame  00000584  00000000  00000000  0001205c  2**2
                  CONTENTS, READONLY, DEBUGGING, OCTETS
 23 .debug_line_str 00000048  00000000  00000000  000125e0  2**0
                  CONTENTS, READONLY, DEBUGGING, OCTETS

Disassembly of section .text:

08000188 <__do_global_dtors_aux>:
 8000188:	b510      	push	{r4, lr}
 800018a:	4c05      	ldr	r4, [pc, #20]	@ (80001a0 <__do_global_dtors_aux+0x18>)
 800018c:	7823      	ldrb	r3, [r4, #0]
 800018e:	b933      	cbnz	r3, 800019e <__do_global_dtors_aux+0x16>
 8000190:	4b04      	ldr	r3, [pc, #16]	@ (80001a4 <__do_global_dtors_aux+0x1c>)
 8000192:	b113      	cbz	r3, 800019a <__do_global_dtors_aux+0x12>
 8000194:	4804      	ldr	r0, [pc, #16]	@ (80001a8 <__do_global_dtors_aux+0x20>)
 8000196:	f3af 8000 	nop.w
 800019a:	2301      	movs	r3, #1
 800019c:	7023      	strb	r3, [r4, #0]
 800019e:	bd10      	pop	{r4, pc}
 80001a0:	20000054 	.word	0x20000054
 80001a4:	00000000 	.word	0x00000000
 80001a8:	08000854 	.word	0x08000854

080001ac <frame_dummy>:
 80001ac:	b508      	push	{r3, lr}
 80001ae:	4b03      	ldr	r3, [pc, #12]	@ (80001bc <frame_dummy+0x10>)
 80001b0:	b11b      	cbz	r3, 80001ba <frame_dummy+0xe>
 80001b2:	4903      	ldr	r1, [pc, #12]	@ (80001c0 <frame_dummy+0x14>)
 80001b4:	4803      	ldr	r0, [pc, #12]	@ (80001c4 <frame_dummy+0x18>)
 80001b6:	f3af 8000 	nop.w
 80001ba:	bd08      	pop	{r3, pc}
 80001bc:	00000000 	.word	0x00000000
 80001c0:	20000058 	.word	0x20000058
 80001c4:	08000854 	.word	0x08000854

080001c8 <iddle_task>:
//=====================================================================================================================
//=====================================================================================================================
//=====================================================================================================================
void iddle_task(void)
{
	__asm volatile("CPSIE I");  // enable interrupts
 80001c8:	b662      	cpsie	i
	while(1){
		__asm volatile("WFI");
 80001ca:	bf30      	wfi
	while(1){
 80001cc:	e7fd      	b.n	80001ca <iddle_task+0x2>
	...

080001d0 <handle_Queue1>:
uint32_t handle_Queue1(void) {
 80001d0:	b530      	push	{r4, r5, lr}
	__asm volatile("CPSID I");
 80001d2:	b672      	cpsid	i
	if(Queue_1_Tasks == 0) {
 80001d4:	4a12      	ldr	r2, [pc, #72]	@ (8000220 <handle_Queue1+0x50>)
 80001d6:	6813      	ldr	r3, [r2, #0]
 80001d8:	b91b      	cbnz	r3, 80001e2 <handle_Queue1+0x12>
		__asm volatile("CPSIE I");
 80001da:	b662      	cpsie	i
		return 0xffffffff;
 80001dc:	f04f 30ff 	mov.w	r0, #4294967295
}
 80001e0:	bd30      	pop	{r4, r5, pc}
	Queue_1_Tasks = QUEUE1_LEN;
 80001e2:	210a      	movs	r1, #10
 80001e4:	6011      	str	r1, [r2, #0]
	__asm volatile("CPSIE I");
 80001e6:	b662      	cpsie	i
	uint8_t * pAddrs = (uint8_t*) Queue_1[Queue_1_head];
 80001e8:	4d0e      	ldr	r5, [pc, #56]	@ (8000224 <handle_Queue1+0x54>)
 80001ea:	490f      	ldr	r1, [pc, #60]	@ (8000228 <handle_Queue1+0x58>)
 80001ec:	682c      	ldr	r4, [r5, #0]
 80001ee:	2c09      	cmp	r4, #9
	Queue_1_head ++;
 80001f0:	f104 0001 	add.w	r0, r4, #1
 80001f4:	bf08      	it	eq
 80001f6:	2000      	moveq	r0, #0
	uint8_t * pAddrs = (uint8_t*) Queue_1[Queue_1_head];
 80001f8:	f851 1024 	ldr.w	r1, [r1, r4, lsl #2]
		Queue_1_head = 0;
 80001fc:	6028      	str	r0, [r5, #0]
    	while((pUART2_Base[0] & (1 << 6))== 0){
 80001fe:	f04f 2440 	mov.w	r4, #1073758208	@ 0x40004000
    while(pAddrs[i] != 0) {
 8000202:	7808      	ldrb	r0, [r1, #0]
 8000204:	b918      	cbnz	r0, 800020e <handle_Queue1+0x3e>
    many_task --;
 8000206:	3b01      	subs	r3, #1
	Queue_1_Tasks = many_task;
 8000208:	6013      	str	r3, [r2, #0]
    return 0;
 800020a:	e7e9      	b.n	80001e0 <handle_Queue1+0x10>
    		__asm volatile("NOP"); // need beware idiot compiler in "Os" optimization remove all while loop
 800020c:	bf00      	nop
    	while((pUART2_Base[0] & (1 << 6))== 0){
 800020e:	f8d4 0400 	ldr.w	r0, [r4, #1024]	@ 0x400
 8000212:	0640      	lsls	r0, r0, #25
 8000214:	d5fa      	bpl.n	800020c <handle_Queue1+0x3c>
    	pUART2_Base[1] = pAddrs[i];
 8000216:	f811 0b01 	ldrb.w	r0, [r1], #1
 800021a:	f8c4 0404 	str.w	r0, [r4, #1028]	@ 0x404
    	i++;
 800021e:	e7f0      	b.n	8000202 <handle_Queue1+0x32>
 8000220:	20000070 	.word	0x20000070
 8000224:	20000078 	.word	0x20000078
 8000228:	2000007c 	.word	0x2000007c

0800022c <enable_processor_faults>:
    pSHCSR[0] |= (( 1 << 16) | ( 1 << 17) | ( 1 << 18));
 800022c:	f04f 22e0 	mov.w	r2, #3758153728	@ 0xe000e000
 8000230:	f8d2 3d24 	ldr.w	r3, [r2, #3364]	@ 0xd24
 8000234:	f443 23e0 	orr.w	r3, r3, #458752	@ 0x70000
 8000238:	f8c2 3d24 	str.w	r3, [r2, #3364]	@ 0xd24
}
 800023c:	4770      	bx	lr
	...

08000240 <init_tasks_stacks>:
	task_delay[0] = 0;
 8000240:	4b10      	ldr	r3, [pc, #64]	@ (8000284 <init_tasks_stacks+0x44>)
 8000242:	4911      	ldr	r1, [pc, #68]	@ (8000288 <init_tasks_stacks+0x48>)
{
 8000244:	b5f0      	push	{r4, r5, r6, r7, lr}
	task_delay[0] = 0;
 8000246:	2200      	movs	r2, #0
 8000248:	4c10      	ldr	r4, [pc, #64]	@ (800028c <init_tasks_stacks+0x4c>)
			pPSP[0] = 0xDEADBEEF ;
 800024a:	4f11      	ldr	r7, [pc, #68]	@ (8000290 <init_tasks_stacks+0x50>)
	task_delay[0] = 0;
 800024c:	601a      	str	r2, [r3, #0]
		pPSP[0] = DUMMY_XPSR;
 800024e:	f04f 7580 	mov.w	r5, #16777216	@ 0x1000000
	task_delay[0] = 0;
 8000252:	2207      	movs	r2, #7
		pPSP[0] = 0xFFFFFFFD; // ISR RETURN to thread code with PSP
 8000254:	f06f 0602 	mvn.w	r6, #2
		pPSP = (uint32_t*) psp_of_tasks[i];
 8000258:	f851 3b04 	ldr.w	r3, [r1], #4
		pPSP[0] = DUMMY_XPSR;
 800025c:	f843 5c04 	str.w	r5, [r3, #-4]
		pPSP[0] = task_handlers[i];
 8000260:	f854 0b04 	ldr.w	r0, [r4], #4
 8000264:	f843 0c08 	str.w	r0, [r3, #-8]
		pPSP[0] = 0xFFFFFFFD; // ISR RETURN to thread code with PSP
 8000268:	f843 6c0c 	str.w	r6, [r3, #-12]
		pPSP--;  // LR
 800026c:	f1a3 000c 	sub.w	r0, r3, #12
		for(int x = 0; x < 13; x++){
 8000270:	3b40      	subs	r3, #64	@ 0x40
			pPSP[0] = 0xDEADBEEF ;
 8000272:	f840 7d04 	str.w	r7, [r0, #-4]!
		for(int x = 0; x < 13; x++){
 8000276:	4283      	cmp	r3, r0
 8000278:	d1fb      	bne.n	8000272 <init_tasks_stacks+0x32>
	for(int i = 0; i < MANY_TASKS ; i++) {
 800027a:	3a01      	subs	r2, #1
		psp_of_tasks[i] = (uint32_t) pPSP;
 800027c:	f841 3c04 	str.w	r3, [r1, #-4]
	for(int i = 0; i < MANY_TASKS ; i++) {
 8000280:	d1ea      	bne.n	8000258 <init_tasks_stacks+0x18>
}
 8000282:	bdf0      	pop	{r4, r5, r6, r7, pc}
 8000284:	20000038 	.word	0x20000038
 8000288:	2000001c 	.word	0x2000001c
 800028c:	20000000 	.word	0x20000000
 8000290:	deadbeef 	.word	0xdeadbeef

08000294 <config_IRQ_PRIO>:
	uint32_t *ipr  = pNVIC_IPRBASE + iprx;
 8000294:	f000 03fc 	and.w	r3, r0, #252	@ 0xfc
 8000298:	f103 4360 	add.w	r3, r3, #3758096384	@ 0xe0000000
 800029c:	f503 4364 	add.w	r3, r3, #58368	@ 0xe400
{
 80002a0:	b510      	push	{r4, lr}
	uint8_t pos = (irq_no % 4) * 8;
 80002a2:	f000 0003 	and.w	r0, r0, #3
	ipr[0] &= ~(0xFF << pos);
 80002a6:	681a      	ldr	r2, [r3, #0]
 80002a8:	00c0      	lsls	r0, r0, #3
 80002aa:	24ff      	movs	r4, #255	@ 0xff
	priority_value = priority_value << 4;
 80002ac:	0109      	lsls	r1, r1, #4
	ipr[0] &= ~(0xFF << pos);
 80002ae:	4084      	lsls	r4, r0
	ipr[0] |= (priority_value << pos);
 80002b0:	b2c9      	uxtb	r1, r1
	ipr[0] &= ~(0xFF << pos);
 80002b2:	ea22 0204 	bic.w	r2, r2, r4
	ipr[0] |= (priority_value << pos);
 80002b6:	4081      	lsls	r1, r0
 80002b8:	430a      	orrs	r2, r1
 80002ba:	601a      	str	r2, [r3, #0]
}
 80002bc:	bd10      	pop	{r4, pc}
	...

080002c0 <sysTick_init>:
	__asm volatile("CPSID I");
 80002c0:	b672      	cpsid	i
	SYSTICK->CTRL = 0;
 80002c2:	f04f 23e0 	mov.w	r3, #3758153728	@ 0xe000e000
 80002c6:	2200      	movs	r2, #0
 80002c8:	611a      	str	r2, [r3, #16]
	SYSTICK->COUNT = 0;
 80002ca:	619a      	str	r2, [r3, #24]
	SYSTICK->LOAD = (COUNT_VALUE - 1);
 80002cc:	f643 627f 	movw	r2, #15999	@ 0x3e7f
 80002d0:	615a      	str	r2, [r3, #20]
	SYSTICK->CTRL = 7;
 80002d2:	2207      	movs	r2, #7
 80002d4:	611a      	str	r2, [r3, #16]
	pSHPR3[0] = PRIO; // set the systick priority as 15 and pendSV priority as 15
 80002d6:	4a04      	ldr	r2, [pc, #16]	@ (80002e8 <sysTick_init+0x28>)
 80002d8:	f8c3 2d20 	str.w	r2, [r3, #3360]	@ 0xd20
	pSHPR2[0] = PRIO; // set the SVC priority as 15
 80002dc:	f04f 4270 	mov.w	r2, #4026531840	@ 0xf0000000
 80002e0:	f8c3 2d1c 	str.w	r2, [r3, #3356]	@ 0xd1c
	__asm volatile("CPSIE I");
 80002e4:	b662      	cpsie	i
}
 80002e6:	4770      	bx	lr
 80002e8:	f0f00000 	.word	0xf0f00000

080002ec <Delay_Task>:
	if((task_no < MANY_TASKS) && (task_no != 0)) {
 80002ec:	1e43      	subs	r3, r0, #1
 80002ee:	2b05      	cmp	r3, #5
		task_delay[task_no] = delay;
 80002f0:	bf9c      	itt	ls
 80002f2:	4b02      	ldrls	r3, [pc, #8]	@ (80002fc <Delay_Task+0x10>)
 80002f4:	f843 1020 	strls.w	r1, [r3, r0, lsl #2]
}
 80002f8:	4770      	bx	lr
 80002fa:	bf00      	nop
 80002fc:	20000038 	.word	0x20000038

08000300 <Unblock_Task>:
	Delay_Task(task_no, 0);
 8000300:	2100      	movs	r1, #0
 8000302:	f7ff bff3 	b.w	80002ec <Delay_Task>
	...

08000308 <put_Queue1_task>:
	if(Queue_1_Tasks == QUEUE1_LEN) {return false;};
 8000308:	4a0e      	ldr	r2, [pc, #56]	@ (8000344 <put_Queue1_task+0x3c>)
bool put_Queue1_task(uint32_t addrs) {
 800030a:	b538      	push	{r3, r4, r5, lr}
	if(Queue_1_Tasks == QUEUE1_LEN) {return false;};
 800030c:	6813      	ldr	r3, [r2, #0]
 800030e:	2b0a      	cmp	r3, #10
 8000310:	d016      	beq.n	8000340 <put_Queue1_task+0x38>
	__asm volatile("CPSID I");
 8000312:	b672      	cpsid	i
	Queue_1[Queue_1_tail] = addrs;
 8000314:	4d0c      	ldr	r5, [pc, #48]	@ (8000348 <put_Queue1_task+0x40>)
 8000316:	4b0d      	ldr	r3, [pc, #52]	@ (800034c <put_Queue1_task+0x44>)
 8000318:	682c      	ldr	r4, [r5, #0]
 800031a:	f843 0024 	str.w	r0, [r3, r4, lsl #2]
	Queue_1_Tasks ++;
 800031e:	6813      	ldr	r3, [r2, #0]
 8000320:	2c09      	cmp	r4, #9
 8000322:	f103 0101 	add.w	r1, r3, #1
	Unblock_Task((uint32_t) TASK_QUEUE1);
 8000326:	f04f 0005 	mov.w	r0, #5
	Queue_1_tail ++;
 800032a:	f104 0301 	add.w	r3, r4, #1
	if(Queue_1_tail == QUEUE1_LEN ) { Queue_1_tail = 0;}
 800032e:	bf08      	it	eq
 8000330:	2300      	moveq	r3, #0
	Queue_1_Tasks ++;
 8000332:	6011      	str	r1, [r2, #0]
	Queue_1_tail ++;
 8000334:	602b      	str	r3, [r5, #0]
	Unblock_Task((uint32_t) TASK_QUEUE1);
 8000336:	f7ff ffe3 	bl	8000300 <Unblock_Task>
	__asm volatile("CPSIE I");
 800033a:	b662      	cpsie	i
	return true;
 800033c:	2001      	movs	r0, #1
}
 800033e:	bd38      	pop	{r3, r4, r5, pc}
	if(Queue_1_Tasks == QUEUE1_LEN) {return false;};
 8000340:	2000      	movs	r0, #0
 8000342:	e7fc      	b.n	800033e <put_Queue1_task+0x36>
 8000344:	20000070 	.word	0x20000070
 8000348:	20000074 	.word	0x20000074
 800034c:	2000007c 	.word	0x2000007c

08000350 <OS_delay>:
	task_delay[current_task] = delay;
 8000350:	4b05      	ldr	r3, [pc, #20]	@ (8000368 <OS_delay+0x18>)
 8000352:	681a      	ldr	r2, [r3, #0]
 8000354:	4b05      	ldr	r3, [pc, #20]	@ (800036c <OS_delay+0x1c>)
 8000356:	f843 0022 	str.w	r0, [r3, r2, lsl #2]
    pICSR[0] = (1 << 28); // make PendSV exception
 800035a:	f04f 23e0 	mov.w	r3, #3758153728	@ 0xe000e000
 800035e:	f04f 5280 	mov.w	r2, #268435456	@ 0x10000000
 8000362:	f8c3 2d04 	str.w	r2, [r3, #3332]	@ 0xd04
}
 8000366:	4770      	bx	lr
 8000368:	200000a4 	.word	0x200000a4
 800036c:	20000038 	.word	0x20000038

08000370 <change_sp_to_psp>:
    __asm volatile("MOVS  R1,      #0x02");       // change stack value for CONTROL register
 8000370:	2102      	movs	r1, #2
    __asm volatile("MSR   CONTROL, R1");          // switch stack to PSP used value
 8000372:	f381 8814 	msr	CONTROL, r1
    __asm volatile("MOV   SP,      R0");          // initialize PSP stack value
 8000376:	4685      	mov	sp, r0
    __asm volatile("BX    LR");                   // go back to invoked place
 8000378:	4770      	bx	lr

0800037a <set_MSP>:
	__asm volatile("MOV   SP,     R0");          // initialize MSP stack value
 800037a:	4685      	mov	sp, r0
	__asm volatile("BX    LR");                  // return
 800037c:	4770      	bx	lr
	...

08000380 <OS_start>:
	__asm volatile("CPSID I");     // disable interrupts for eliminate any race conditions
 8000380:	b672      	cpsid	i
	set_MSP(MSP_STACK);
 8000382:	4807      	ldr	r0, [pc, #28]	@ (80003a0 <OS_start+0x20>)
 8000384:	f7ff fff9 	bl	800037a <set_MSP>
	init_tasks_stacks();
 8000388:	f7ff ff5a 	bl	8000240 <init_tasks_stacks>
	change_sp_to_psp(PSP_STACK);              // init MSP, PSP and switch to PSP
 800038c:	4805      	ldr	r0, [pc, #20]	@ (80003a4 <OS_start+0x24>)
	enable_processor_faults();
 800038e:	f7ff ff4d 	bl	800022c <enable_processor_faults>
	change_sp_to_psp(PSP_STACK);              // init MSP, PSP and switch to PSP
 8000392:	f7ff ffed 	bl	8000370 <change_sp_to_psp>
	sysTick_init();
 8000396:	f7ff ff93 	bl	80002c0 <sysTick_init>
	__asm volatile("LDR   R1, = iddle_task ");
 800039a:	4903      	ldr	r1, [pc, #12]	@ (80003a8 <OS_start+0x28>)
	__asm volatile("BX    R1");           // iddle task invoke
 800039c:	4708      	bx	r1
}
 800039e:	bf00      	nop
 80003a0:	2001f880 	.word	0x2001f880
 80003a4:	20020000 	.word	0x20020000
 80003a8:	080001c9 	.word	0x080001c9

080003ac <save_psp_value>:
	psp_of_tasks[current_task] = current_psp_value; // save current task actual preempted SP value
 80003ac:	4b02      	ldr	r3, [pc, #8]	@ (80003b8 <save_psp_value+0xc>)
 80003ae:	681a      	ldr	r2, [r3, #0]
 80003b0:	4b02      	ldr	r3, [pc, #8]	@ (80003bc <save_psp_value+0x10>)
 80003b2:	f843 0022 	str.w	r0, [r3, r2, lsl #2]
}
 80003b6:	4770      	bx	lr
 80003b8:	200000a4 	.word	0x200000a4
 80003bc:	2000001c 	.word	0x2000001c

080003c0 <get_psp_value>:
	return psp_of_tasks[current_task]; // take preeampted SP (PSP) value and return in R0 register
 80003c0:	4b02      	ldr	r3, [pc, #8]	@ (80003cc <get_psp_value+0xc>)
 80003c2:	681a      	ldr	r2, [r3, #0]
}
 80003c4:	4b02      	ldr	r3, [pc, #8]	@ (80003d0 <get_psp_value+0x10>)
 80003c6:	f853 0022 	ldr.w	r0, [r3, r2, lsl #2]
 80003ca:	4770      	bx	lr
 80003cc:	200000a4 	.word	0x200000a4
 80003d0:	2000001c 	.word	0x2000001c

080003d4 <update_next_task>:
	for(int i = 1 ; i < MANY_TASKS ; i++){
 80003d4:	4b10      	ldr	r3, [pc, #64]	@ (8000418 <update_next_task+0x44>)
{
 80003d6:	b530      	push	{r4, r5, lr}
	for(int i = 1 ; i < MANY_TASKS ; i++){
 80003d8:	2201      	movs	r2, #1
 80003da:	461d      	mov	r5, r3
		if((delay_task != 0) &&  (delay_task != 0xffffffff)) { task_delay[i] --; }
 80003dc:	f853 1f04 	ldr.w	r1, [r3, #4]!
 80003e0:	3901      	subs	r1, #1
 80003e2:	1cc8      	adds	r0, r1, #3
	for(int i = 1 ; i < MANY_TASKS ; i++){
 80003e4:	f102 0201 	add.w	r2, r2, #1
		if((delay_task != 0) &&  (delay_task != 0xffffffff)) { task_delay[i] --; }
 80003e8:	bf98      	it	ls
 80003ea:	6019      	strls	r1, [r3, #0]
	for(int i = 1 ; i < MANY_TASKS ; i++){
 80003ec:	2a07      	cmp	r2, #7
 80003ee:	d1f5      	bne.n	80003dc <update_next_task+0x8>
 80003f0:	480a      	ldr	r0, [pc, #40]	@ (800041c <update_next_task+0x48>)
 80003f2:	6803      	ldr	r3, [r0, #0]
		current_task = current_task % MANY_TASKS;
 80003f4:	4614      	mov	r4, r2
		current_task++;
 80003f6:	3301      	adds	r3, #1
		current_task = current_task % MANY_TASKS;
 80003f8:	fbb3 f1f4 	udiv	r1, r3, r4
 80003fc:	ebc1 01c1 	rsb	r1, r1, r1, lsl #3
 8000400:	1a5b      	subs	r3, r3, r1
		delay_state = task_delay[current_task];
 8000402:	f855 1023 	ldr.w	r1, [r5, r3, lsl #2]
		if( (delay_state == 0) && (current_task != 0) ) { break; }
 8000406:	b901      	cbnz	r1, 800040a <update_next_task+0x36>
 8000408:	b923      	cbnz	r3, 8000414 <update_next_task+0x40>
	for(int i= 0 ; i < (MANY_TASKS) ; i++){
 800040a:	3a01      	subs	r2, #1
 800040c:	d1f3      	bne.n	80003f6 <update_next_task+0x22>
    if(delay_state != 0){ current_task = 0; }
 800040e:	2900      	cmp	r1, #0
 8000410:	bf18      	it	ne
 8000412:	2300      	movne	r3, #0
 8000414:	6003      	str	r3, [r0, #0]
}
 8000416:	bd30      	pop	{r4, r5, pc}
 8000418:	20000038 	.word	0x20000038
 800041c:	200000a4 	.word	0x200000a4

08000420 <SysTick_Handler>:
	tck_cnt++;
 8000420:	4a05      	ldr	r2, [pc, #20]	@ (8000438 <SysTick_Handler+0x18>)
 8000422:	6813      	ldr	r3, [r2, #0]
 8000424:	3301      	adds	r3, #1
 8000426:	6013      	str	r3, [r2, #0]
    pICSR[0] = (1 << 28); // make PendSV exception
 8000428:	f04f 23e0 	mov.w	r3, #3758153728	@ 0xe000e000
 800042c:	f04f 5280 	mov.w	r2, #268435456	@ 0x10000000
 8000430:	f8c3 2d04 	str.w	r2, [r3, #3332]	@ 0xd04
}
 8000434:	4770      	bx	lr
 8000436:	bf00      	nop
 8000438:	200000a8 	.word	0x200000a8

0800043c <PendSV_Handler>:
	__asm volatile("CPSID  I ");			   // disable interrupts for eliminate any race conditions
 800043c:	b672      	cpsid	i
	__asm volatile("PUSH {LR}");			   // save Link Register {LR}
 800043e:	b500      	push	{lr}
	__asm volatile("MRS R0, PSP");             // take actual task stack pointer
 8000440:	f3ef 8009 	mrs	r0, PSP
	__asm volatile("STMDB R0!, {R4-R11}");     // save R4-R11 registers into task stack pointer
 8000444:	e920 0ff0 	stmdb	r0!, {r4, r5, r6, r7, r8, r9, sl, fp}
	__asm volatile("BL save_psp_value");       // save current task actual preempted SP value
 8000448:	f7ff ffb0 	bl	80003ac <save_psp_value>
	__asm volatile("BL update_next_task");     // scheduler job for running next task
 800044c:	f7ff ffc2 	bl	80003d4 <update_next_task>
	__asm volatile("BL get_psp_value");        // get scheduled task preempted before SP value into R0
 8000450:	f7ff ffb6 	bl	80003c0 <get_psp_value>
	__asm volatile("LDMIA R0!, {R4-R11}");     // restore for next scheduled tasks context
 8000454:	e8b0 0ff0 	ldmia.w	r0!, {r4, r5, r6, r7, r8, r9, sl, fp}
	__asm volatile("MSR PSP, R0");             // set MSP stack pointer of new scheduled task
 8000458:	f380 8809 	msr	PSP, r0
	__asm volatile("CPSIE  I ");			   // enable interrupts
 800045c:	b662      	cpsie	i
	__asm volatile("POP {PC}");			   	   // restore Link Register (LR) and immediatelly send into {PC} Program Couner
 800045e:	bd00      	pop	{pc}

08000460 <my_htoa32>:

extern __attribute__((naked)) void my_htoa32(uint8_t * buf, uint32_t data){

extern void HT64CNT(void); // declaration for find subfunction

__asm volatile("MOV    R3, 0x7830");     // '0x' ");
 8000460:	f647 0330 	movw	r3, #30768	@ 0x7830
__asm volatile("STRH   R3, [R0]");       // STORE '0x' TO BUFFER");
 8000464:	8003      	strh	r3, [r0, #0]
__asm volatile("B HT64CNT");      // ");
 8000466:	f000 b800 	b.w	800046a <HT64CNT>

0800046a <HT64CNT>:
}
extern __attribute__((naked)) void HT64CNT(void) {

__asm volatile("MOVS   R3, #2");         // output data 2 bytes after start buffer
 800046a:	2302      	movs	r3, #2

0800046c <LP01>:
//---
__asm volatile("LP01:");
__asm volatile("LSRS   R2, R1, #28");    // R2 = OUR DATA TO STRING CONVERT 1 BYTE = NYBBLE 0..F");
 800046c:	0f0a      	lsrs	r2, r1, #28
__asm volatile("LSLS   R1, R1, #4");     // R1 * 16 = R1 << 4");
 800046e:	0109      	lsls	r1, r1, #4
__asm volatile("ADDS   R2, R2, #0x30");  // CONVERT TO NUMBER");
 8000470:	3230      	adds	r2, #48	@ 0x30
__asm volatile("CMP    R2, #0x3A");
 8000472:	2a3a      	cmp	r2, #58	@ 0x3a
__asm volatile("BCC.N  LP01A");          // if data < than 0x3a don't  add #7");
 8000474:	d300      	bcc.n	8000478 <LP01A>
__asm volatile("ADDS   R2,R2, 0x07");    // CONVER TO LETTER");
 8000476:	3207      	adds	r2, #7

08000478 <LP01A>:
__asm volatile("LP01A:");
__asm volatile("STRH   R2, [R0, R3]");   // STRH store byte and zero terminated");
 8000478:	52c2      	strh	r2, [r0, r3]
__asm volatile("ADDS   R3, R3, #1");
 800047a:	3301      	adds	r3, #1
__asm volatile("CMP    R3, #10");
 800047c:	2b0a      	cmp	r3, #10
__asm volatile("BNE.N  LP01");
 800047e:	d1f5      	bne.n	800046c <LP01>
//---
__asm volatile("BX     LR");
 8000480:	4770      	bx	lr

08000482 <set_LF>:
//    R0, =  ; POINTER TO OUTPUT char DATA BUFFER
//---
// output: no output, data in buffer are output
//=======================================================
extern __attribute__((naked))  void set_LF(uint32_t * buff_ad){
	__asm volatile("MOV    R1,  #0x00000A0D");
 8000482:	f640 210d 	movw	r1, #2573	@ 0xa0d
	__asm volatile("STR    R1, [R0]");
 8000486:	6001      	str	r1, [r0, #0]
	__asm volatile("BX     LR");
 8000488:	4770      	bx	lr
	...

0800048c <my_utoa>:
//---
// OUTPUT: R0 = LENGTH OF PRODUCED BYTES OF STRING
//========================================================
extern __attribute__((naked))  uint32_t my_utoa(uint8_t * buf, uint32_t data){

__asm volatile("PUSH {R4,R5,LR}");  // store registers");
 800048c:	b530      	push	{r4, r5, lr}


__asm volatile("MOV   R5, #0");  // LENGTH OF STRING");
 800048e:	f04f 0500 	mov.w	r5, #0
__asm volatile("STR   R5, [R0]"); // CLEAR BUFFER");
 8000492:	6005      	str	r5, [r0, #0]
__asm volatile("STR   R5, [R0, #4]");
 8000494:	6045      	str	r5, [r0, #4]
__asm volatile("STR   R5, [R0, #8]");
 8000496:	6085      	str	r5, [r0, #8]

08000498 <CALC01>:
__asm volatile("CALC01:");
//------------------
//- R4 = R1 DIV 10 -
//------------------
__asm volatile("LDR   R3, = 0xCCCCCCCD"); // MAGIC VALUE (!!!)");
 8000498:	4b0d      	ldr	r3, [pc, #52]	@ (80004d0 <END_CALC+0x2>)
__asm volatile("UMULL R4,R3,R3,R1");      // this three lines looks a bit strange");
 800049a:	fba3 4301 	umull	r4, r3, r3, r1
__asm volatile("LSRS  R4,R3, #3");        // but here we gotta divide by 10 (seriously!)");
 800049e:	08dc      	lsrs	r4, r3, #3
//----------------------------------------------
__asm volatile("MOVS  R2, R4");         // R2 = R1 div by 10 without the rest");
 80004a0:	0022      	movs	r2, r4
__asm volatile("MOVS  R3, #0x0A");      // R3 = 10");
 80004a2:	230a      	movs	r3, #10
__asm volatile("MUL   R4, R4, R3");     // R4 = R4 * 10");
 80004a4:	fb04 f403 	mul.w	r4, r4, r3

// mod 10 calculate
// R4 = R1 mod 10
__asm volatile("SUBS  R4, R1, R4");     // CALCULATE THE REST r4 = r1 - r4");
 80004a8:	1b0c      	subs	r4, r1, r4

__asm volatile("ORR   R4, R4, #0x30");  // CHANGE TO ASCII NUMBER VALUE '0..9'");
 80004aa:	f044 0430 	orr.w	r4, r4, #48	@ 0x30
__asm volatile("STRH  R4, [R0,R5]");    // store next decimal row and ZERO terminate string");
 80004ae:	5344      	strh	r4, [r0, r5]
__asm volatile("ADDS  R5, R5, #1");     // R5 = length of string");
 80004b0:	3501      	adds	r5, #1
__asm volatile("MOV   R1, R2");         // R1 = before stored value in R2 = (R1 div 10)");
 80004b2:	4611      	mov	r1, r2
__asm volatile("CMP   R1, #0");         // R1 = 0? (that was last one operation?)");
 80004b4:	2900      	cmp	r1, #0
__asm volatile("BNE.N CALC01");         // if R1 != 0 then continue CALC01 loop");
 80004b6:	d1ef      	bne.n	8000498 <CALC01>

__asm volatile("PUSH  {R5}");           // TEMPORARY STORE LENGTH OF STRING");
 80004b8:	b420      	push	{r5}
__asm volatile("SUBS  R5, R5, #1");     // SET OFFSET AT THE END OF STRING (BACKWARD POSSITION)");
 80004ba:	3d01      	subs	r5, #1

080004bc <CALC02>:
// R5 = OFFSET TO THE END OF STRING (BACKWARD POSSITION)
// R1 = OFFSET TO THE START OF STRING (FORWARD POSSITION) R1 = 0 AT THE END CALC01 ROUTINE
// R4 = BACKWARD BYTE (BYTE FROM 'RIGHT SIDE')
// R2 = FORWARD  BYTE (BYTE FROM 'LEFT  SIDE')
__asm volatile("CALC02:");
__asm volatile("LDRB  R4, [R0, R5]"); // GET DATA FROM THE END (FROM RIGT SIDE)");
 80004bc:	5d44      	ldrb	r4, [r0, r5]
__asm volatile("LDRB  R2, [R0, R1]"); // GET DATA FROM THE START (LEFT SIDE)");
 80004be:	5c42      	ldrb	r2, [r0, r1]
__asm volatile("STRB  R2, [R0, R5]"); // GET DATA FROM THE 'LEFT  SIDE INTO THE RIGHT SIDE'");
 80004c0:	5542      	strb	r2, [r0, r5]
__asm volatile("STRB  R4, [R0, R1]"); // GET DATA FROM THE 'RIGHT SIDE INTO THE LEFT  SIDE'");
 80004c2:	5444      	strb	r4, [r0, r1]
__asm volatile("ADDS  R1, R1, #1");   // ACTUALIZE STRING FORWARD POSSITION");
 80004c4:	3101      	adds	r1, #1
__asm volatile("SUBS  R5, R5, #1");   // ACTUALIZE STRING BACKWARD POSSITION");
 80004c6:	3d01      	subs	r5, #1
__asm volatile("CMP   R5, R1");       // R5 =< R1 ?");
 80004c8:	428d      	cmp	r5, r1
__asm volatile("BEQ.N END_CALC");     // if R5 = R1 go to finish");
 80004ca:	d000      	beq.n	80004ce <END_CALC>
__asm volatile("BGT.N CALC02");       // if R5 > R1 continue loop - otherway finish (R5 < R1)");
 80004cc:	dcf6      	bgt.n	80004bc <CALC02>

080004ce <END_CALC>:
// acording declaration this functin is 'int' and
// acordind AAPCS should be returned int value in R0
// simple 'return datalength;' in C
// OUTPUT: R0 = LENGTH OF PRODUCED BYTES OF STRING R0 = R5

__asm volatile("POP {R0, R4, R5, PC}        // restore registers // ADIOS :)");
 80004ce:	bd31      	pop	{r0, r4, r5, pc}
// OUTPUT: R0 = LENGTH OF PRODUCED STRING BYTES
//=====================================================
}
 80004d0:	cccccccd 	.word	0xcccccccd

080004d4 <led_toggle>:
//=====================================================================================================================

//=====================================================================================================================
extern void led_toggle(uint32_t LED)
{
    LED_BB[LED] ^= 1;
 80004d4:	4a03      	ldr	r2, [pc, #12]	@ (80004e4 <led_toggle+0x10>)
 80004d6:	f852 3020 	ldr.w	r3, [r2, r0, lsl #2]
 80004da:	f083 0301 	eor.w	r3, r3, #1
 80004de:	f842 3020 	str.w	r3, [r2, r0, lsl #2]
}
 80004e2:	4770      	bx	lr
 80004e4:	42418280 	.word	0x42418280

080004e8 <led_init>:
{
    uint32_t *pRccAhb1enr   = (uint32_t *)0x40023830;
    uint32_t *pGpiodModeReg = (uint32_t *)0x40020C00;


    pRccAhb1enr[0] |= (1 << 3);
 80004e8:	4a07      	ldr	r2, [pc, #28]	@ (8000508 <led_init+0x20>)
 80004ea:	f8d2 3830 	ldr.w	r3, [r2, #2096]	@ 0x830
 80004ee:	f043 0308 	orr.w	r3, r3, #8
 80004f2:	f8c2 3830 	str.w	r3, [r2, #2096]	@ 0x830
    // configure LEDS
    pGpiodModeReg[0] |= (1 << (2 * LED_GREEN)) | (1 << (2 * LED_ORANGE)) | (1 << (2 * LED_RED)) | (1 << (2 * LED_BLUE));
 80004f6:	f5a2 5240 	sub.w	r2, r2, #12288	@ 0x3000
 80004fa:	f8d2 3c00 	ldr.w	r3, [r2, #3072]	@ 0xc00
 80004fe:	f043 43aa 	orr.w	r3, r3, #1426063360	@ 0x55000000
 8000502:	f8c2 3c00 	str.w	r3, [r2, #3072]	@ 0xc00
}
 8000506:	4770      	bx	lr
 8000508:	40023000 	.word	0x40023000

0800050c <NVIC_Enable_IRQ>:

//====================================================================================================================

void NVIC_Enable_IRQ(uint32_t IRQ){

	__asm volatile ("LDR     R2, = 0xE000E100");
 800050c:	4a04      	ldr	r2, [pc, #16]	@ (8000520 <NVIC_Enable_IRQ+0x14>)
	__asm volatile ("LSRS    R1, R0, #5");
 800050e:	0941      	lsrs	r1, r0, #5
	__asm volatile ("MOVS    R3, #1");
 8000510:	2301      	movs	r3, #1
	__asm volatile ("AND.W   R0, R0, #31");
 8000512:	f000 001f 	and.w	r0, r0, #31
	__asm volatile ("LSLS    R3, R0");
 8000516:	4083      	lsls	r3, r0
	__asm volatile ("STR.W   R3, [R2, R1, LSL #2]");
 8000518:	f842 3021 	str.w	r3, [r2, r1, lsl #2]
}
 800051c:	4770      	bx	lr
 800051e:	0000      	.short	0x0000
 8000520:	e000e100 	.word	0xe000e100

08000524 <main>:
//=====================================================================================================================


//=====================================================================================================================
int main(void)
{
 8000524:	b508      	push	{r3, lr}
#define EXTI0 6

	led_init();
 8000526:	f7ff ffdf 	bl	80004e8 <led_init>
	uart_UART2_config();
 800052a:	f000 f91b 	bl	8000764 <uart_UART2_config>
	uint32_t * pRCC_APB2_enr   = (uint32_t *) 0x40023844;
    uint32_t * pRCC_AHB1_enr   = (uint32_t *) 0x40023830;
    uint32_t * pGPIOA          = (uint32_t *) 0x40020000;
    uint32_t * pEXTI           = (uint32_t *) 0x40013C00;

    pRCC_APB2_enr[0] |= (1 << 14); // SYSCFGEN ENABLE
 800052e:	4b18      	ldr	r3, [pc, #96]	@ (8000590 <main+0x6c>)
 8000530:	f8d3 2844 	ldr.w	r2, [r3, #2116]	@ 0x844
 8000534:	f442 4280 	orr.w	r2, r2, #16384	@ 0x4000
 8000538:	f8c3 2844 	str.w	r2, [r3, #2116]	@ 0x844
	pRCC_APB1_enr[0] |= (1 << 28); // PWREN ENABLE
 800053c:	f8d3 2840 	ldr.w	r2, [r3, #2112]	@ 0x840
 8000540:	f042 5280 	orr.w	r2, r2, #268435456	@ 0x10000000
 8000544:	f8c3 2840 	str.w	r2, [r3, #2112]	@ 0x840
	pRCC_AHB1_enr[0] |= (1 << 0);  // GPIOA ENABLE
 8000548:	f8d3 2830 	ldr.w	r2, [r3, #2096]	@ 0x830
 800054c:	f042 0201 	orr.w	r2, r2, #1
 8000550:	f8c3 2830 	str.w	r2, [r3, #2096]	@ 0x830


	__asm volatile("DSB");
 8000554:	f3bf 8f4f 	dsb	sy
	// 3. configure edge detection
	// 4. enable IRQ over that GPIO pin (EXTI->IMR ???)
	// 5 enable IRQ in NVIC

	// 2.
	pGPIOA[0] &= ~(3 << 0); // GPIOA moder = input
 8000558:	4a0e      	ldr	r2, [pc, #56]	@ (8000594 <main+0x70>)
 800055a:	6813      	ldr	r3, [r2, #0]
 800055c:	f023 0303 	bic.w	r3, r3, #3
 8000560:	6013      	str	r3, [r2, #0]
	// 3. EXTI->RTSR |= (1 << 0);
	pEXTI[2]  |= (1 << 0);
 8000562:	4b0d      	ldr	r3, [pc, #52]	@ (8000598 <main+0x74>)
 8000564:	f8d3 2c08 	ldr.w	r2, [r3, #3080]	@ 0xc08
 8000568:	f042 0201 	orr.w	r2, r2, #1
 800056c:	f8c3 2c08 	str.w	r2, [r3, #3080]	@ 0xc08
	// 4. EXTI->IMR |= (1 << 0);
	pEXTI[0]  |= (1 << 0);
 8000570:	f8d3 2c00 	ldr.w	r2, [r3, #3072]	@ 0xc00
 8000574:	f042 0201 	orr.w	r2, r2, #1
 8000578:	f8c3 2c00 	str.w	r2, [r3, #3072]	@ 0xc00
	// 5.

	config_IRQ_PRIO((uint8_t) EXTI0, 14); // BUTTON EXTI IRQ as 14 prior
 800057c:	210e      	movs	r1, #14
 800057e:	2006      	movs	r0, #6
 8000580:	f7ff fe88 	bl	8000294 <config_IRQ_PRIO>
	NVIC_Enable_IRQ(EXTI0);
 8000584:	2006      	movs	r0, #6
 8000586:	f7ff ffc1 	bl	800050c <NVIC_Enable_IRQ>



//---
	OS_start();   // start RTOS and immediatelly run the iddle task
 800058a:	f7ff fef9 	bl	8000380 <OS_start>
//---

	while(1){;}
 800058e:	e7fe      	b.n	800058e <main+0x6a>
 8000590:	40023000 	.word	0x40023000
 8000594:	40020000 	.word	0x40020000
 8000598:	40013000 	.word	0x40013000

0800059c <task1_handler>:
}
//=====================================================================================================================
//=====================================================================================================================
//=====================================================================================================================
void task1_handler(void)
{
 800059c:	b570      	push	{r4, r5, r6, lr}
	static uint32_t cntr = 0;
	uint32_t * pdata = (uint32_t*) 0x40004408;

	while(1){
		led_toggle(LED_GREEN);
		if((cntr %5) == 0) {
 800059e:	4c2d      	ldr	r4, [pc, #180]	@ (8000654 <task1_handler+0xb8>)
		result = false;
		while( result != true ) {
			result = put_Queue1_task((uint32_t)"\r\nPrint from TASK1\r\n");
		}

		my_utoa(&idx[0], cntr);
 80005a0:	4d2d      	ldr	r5, [pc, #180]	@ (8000658 <task1_handler+0xbc>)
{
 80005a2:	b08a      	sub	sp, #40	@ 0x28
		led_toggle(LED_GREEN);
 80005a4:	200c      	movs	r0, #12
 80005a6:	f7ff ff95 	bl	80004d4 <led_toggle>
 80005aa:	6823      	ldr	r3, [r4, #0]
 80005ac:	4a2b      	ldr	r2, [pc, #172]	@ (800065c <task1_handler+0xc0>)
 80005ae:	4353      	muls	r3, r2
		if((cntr %5) == 0) {
 80005b0:	f1b3 3f33 	cmp.w	r3, #858993459	@ 0x33333333
 80005b4:	d80b      	bhi.n	80005ce <task1_handler+0x32>
				result = put_Queue1_task((uint32_t) &clr_scr[0]);
 80005b6:	4e2a      	ldr	r6, [pc, #168]	@ (8000660 <task1_handler+0xc4>)
 80005b8:	4630      	mov	r0, r6
 80005ba:	f7ff fea5 	bl	8000308 <put_Queue1_task>
			while( result != true ) {
 80005be:	2800      	cmp	r0, #0
 80005c0:	d0fa      	beq.n	80005b8 <task1_handler+0x1c>
				result = put_Queue1_task((uint32_t) &run_INFO[0]);
 80005c2:	4e28      	ldr	r6, [pc, #160]	@ (8000664 <task1_handler+0xc8>)
 80005c4:	4630      	mov	r0, r6
 80005c6:	f7ff fe9f 	bl	8000308 <put_Queue1_task>
			while( result != true ) {
 80005ca:	2800      	cmp	r0, #0
 80005cc:	d0fa      	beq.n	80005c4 <task1_handler+0x28>
			result = put_Queue1_task((uint32_t)"\r\nPrint from TASK1\r\n");
 80005ce:	4e26      	ldr	r6, [pc, #152]	@ (8000668 <task1_handler+0xcc>)
 80005d0:	4630      	mov	r0, r6
 80005d2:	f7ff fe99 	bl	8000308 <put_Queue1_task>
		while( result != true ) {
 80005d6:	2800      	cmp	r0, #0
 80005d8:	d0fa      	beq.n	80005d0 <task1_handler+0x34>
		my_utoa(&idx[0], cntr);
 80005da:	6821      	ldr	r1, [r4, #0]
 80005dc:	4628      	mov	r0, r5
 80005de:	f7ff ff55 	bl	800048c <my_utoa>


		cntr ++;
 80005e2:	6823      	ldr	r3, [r4, #0]
 80005e4:	3301      	adds	r3, #1
 80005e6:	6023      	str	r3, [r4, #0]
		result = false;
		while( result != true ) {
			result = put_Queue1_task((uint32_t) &idx[0]);
 80005e8:	4628      	mov	r0, r5
 80005ea:	f7ff fe8d 	bl	8000308 <put_Queue1_task>
		while( result != true ) {
 80005ee:	2800      	cmp	r0, #0
 80005f0:	d0fa      	beq.n	80005e8 <task1_handler+0x4c>
		}

		result = false;
		while( result != true ) {
			result = put_Queue1_task((uint32_t)" Seconds from start...\r\n");
 80005f2:	4e1e      	ldr	r6, [pc, #120]	@ (800066c <task1_handler+0xd0>)
 80005f4:	4630      	mov	r0, r6
 80005f6:	f7ff fe87 	bl	8000308 <put_Queue1_task>
		while( result != true ) {
 80005fa:	2800      	cmp	r0, #0
 80005fc:	d0fa      	beq.n	80005f4 <task1_handler+0x58>
		}


		my_htoa32(&idx3[0], (uint32_t) pdata);
 80005fe:	491c      	ldr	r1, [pc, #112]	@ (8000670 <task1_handler+0xd4>)
		my_htoa32(&idx2[0], (uint32_t) pdata[0]);
		set_LF((uint32_t*) &idx2[10]);

		result = false;
		while( result != true ) {
			result = put_Queue1_task((uint32_t)"Register at: ");
 8000600:	4e1c      	ldr	r6, [pc, #112]	@ (8000674 <task1_handler+0xd8>)
		my_htoa32(&idx3[0], (uint32_t) pdata);
 8000602:	a805      	add	r0, sp, #20
 8000604:	f7ff ff2c 	bl	8000460 <my_htoa32>
		my_htoa32(&idx2[0], (uint32_t) pdata[0]);
 8000608:	f04f 2340 	mov.w	r3, #1073758208	@ 0x40004000
 800060c:	4668      	mov	r0, sp
 800060e:	f8d3 1408 	ldr.w	r1, [r3, #1032]	@ 0x408
 8000612:	f7ff ff25 	bl	8000460 <my_htoa32>
		set_LF((uint32_t*) &idx2[10]);
 8000616:	f10d 000a 	add.w	r0, sp, #10
 800061a:	f7ff ff32 	bl	8000482 <set_LF>
			result = put_Queue1_task((uint32_t)"Register at: ");
 800061e:	4630      	mov	r0, r6
 8000620:	f7ff fe72 	bl	8000308 <put_Queue1_task>
		while( result != true ) {
 8000624:	2800      	cmp	r0, #0
 8000626:	d0fa      	beq.n	800061e <task1_handler+0x82>
		}
		result = false;
		while( result != true ) {
			result = put_Queue1_task((uint32_t) &idx3[0]);
 8000628:	a805      	add	r0, sp, #20
 800062a:	f7ff fe6d 	bl	8000308 <put_Queue1_task>
		while( result != true ) {
 800062e:	2800      	cmp	r0, #0
 8000630:	d0fa      	beq.n	8000628 <task1_handler+0x8c>
		}

		result = false;
		while( result != true ) {
			result = put_Queue1_task((uint32_t)" contains value ");
 8000632:	4e11      	ldr	r6, [pc, #68]	@ (8000678 <task1_handler+0xdc>)
 8000634:	4630      	mov	r0, r6
 8000636:	f7ff fe67 	bl	8000308 <put_Queue1_task>
		while( result != true ) {
 800063a:	2800      	cmp	r0, #0
 800063c:	d0fa      	beq.n	8000634 <task1_handler+0x98>
		}

		result = false;
		while( result != true ) {
			result = put_Queue1_task((uint32_t) &idx2[0]);
 800063e:	4668      	mov	r0, sp
 8000640:	f7ff fe62 	bl	8000308 <put_Queue1_task>
		while( result != true ) {
 8000644:	2800      	cmp	r0, #0
 8000646:	d0fa      	beq.n	800063e <task1_handler+0xa2>

		}
		OS_delay(1000);
 8000648:	f44f 707a 	mov.w	r0, #1000	@ 0x3e8
 800064c:	f7ff fe80 	bl	8000350 <OS_delay>
		led_toggle(LED_GREEN);
 8000650:	e7a8      	b.n	80005a4 <task1_handler+0x8>
 8000652:	bf00      	nop
 8000654:	200000ac 	.word	0x200000ac
 8000658:	200000b0 	.word	0x200000b0
 800065c:	cccccccd 	.word	0xcccccccd
 8000660:	0800097b 	.word	0x0800097b
 8000664:	0800093c 	.word	0x0800093c
 8000668:	0800086c 	.word	0x0800086c
 800066c:	08000881 	.word	0x08000881
 8000670:	40004408 	.word	0x40004408
 8000674:	0800089a 	.word	0x0800089a
 8000678:	080008a8 	.word	0x080008a8

0800067c <task2_handler>:
	}
}
//=====================================================================================================================
void task2_handler(void)
{
 800067c:	b510      	push	{r4, lr}
	bool result ;
	while(1){
		led_toggle(LED_ORANGE);
		result = false;
		while( result != true ) {
			result = put_Queue1_task((uint32_t)"Print from TASK2\r\n");
 800067e:	4c07      	ldr	r4, [pc, #28]	@ (800069c <task2_handler+0x20>)
		led_toggle(LED_ORANGE);
 8000680:	200d      	movs	r0, #13
 8000682:	f7ff ff27 	bl	80004d4 <led_toggle>
			result = put_Queue1_task((uint32_t)"Print from TASK2\r\n");
 8000686:	4620      	mov	r0, r4
 8000688:	f7ff fe3e 	bl	8000308 <put_Queue1_task>
		while( result != true ) {
 800068c:	2800      	cmp	r0, #0
 800068e:	d0fa      	beq.n	8000686 <task2_handler+0xa>
		}
		OS_delay(500);
 8000690:	f44f 70fa 	mov.w	r0, #500	@ 0x1f4
 8000694:	f7ff fe5c 	bl	8000350 <OS_delay>
		led_toggle(LED_ORANGE);
 8000698:	e7f2      	b.n	8000680 <task2_handler+0x4>
 800069a:	bf00      	nop
 800069c:	080008b9 	.word	0x080008b9

080006a0 <task3_handler>:
	}
}
//=====================================================================================================================
void task3_handler(void)
{
 80006a0:	b510      	push	{r4, lr}
	bool result ;
	while(1){
		led_toggle(LED_RED);
		result = false;
		while( result != true ) {
			result = put_Queue1_task((uint32_t)"Print from TASK3\r\n");
 80006a2:	4c06      	ldr	r4, [pc, #24]	@ (80006bc <task3_handler+0x1c>)
		led_toggle(LED_RED);
 80006a4:	200e      	movs	r0, #14
 80006a6:	f7ff ff15 	bl	80004d4 <led_toggle>
			result = put_Queue1_task((uint32_t)"Print from TASK3\r\n");
 80006aa:	4620      	mov	r0, r4
 80006ac:	f7ff fe2c 	bl	8000308 <put_Queue1_task>
		while( result != true ) {
 80006b0:	2800      	cmp	r0, #0
 80006b2:	d0fa      	beq.n	80006aa <task3_handler+0xa>
		}
		OS_delay(250);
 80006b4:	20fa      	movs	r0, #250	@ 0xfa
 80006b6:	f7ff fe4b 	bl	8000350 <OS_delay>
		led_toggle(LED_RED);
 80006ba:	e7f3      	b.n	80006a4 <task3_handler+0x4>
 80006bc:	080008cc 	.word	0x080008cc

080006c0 <task4_handler>:
	}
}
//=====================================================================================================================
void task4_handler(void)
{
 80006c0:	b510      	push	{r4, lr}
	bool result ;
	while(1){
		led_toggle(LED_BLUE);
		result = false;
		while( result != true ) {
			result = put_Queue1_task((uint32_t)"Print from TASK4\r\n");
 80006c2:	4c06      	ldr	r4, [pc, #24]	@ (80006dc <task4_handler+0x1c>)
		led_toggle(LED_BLUE);
 80006c4:	200f      	movs	r0, #15
 80006c6:	f7ff ff05 	bl	80004d4 <led_toggle>
			result = put_Queue1_task((uint32_t)"Print from TASK4\r\n");
 80006ca:	4620      	mov	r0, r4
 80006cc:	f7ff fe1c 	bl	8000308 <put_Queue1_task>
		while( result != true ) {
 80006d0:	2800      	cmp	r0, #0
 80006d2:	d0fa      	beq.n	80006ca <task4_handler+0xa>
		}
		OS_delay(125);
 80006d4:	207d      	movs	r0, #125	@ 0x7d
 80006d6:	f7ff fe3b 	bl	8000350 <OS_delay>
		led_toggle(LED_BLUE);
 80006da:	e7f3      	b.n	80006c4 <task4_handler+0x4>
 80006dc:	080008df 	.word	0x080008df

080006e0 <task5_handler>:
	}
}
//=====================================================================================================================
void task5_handler(void)
{
 80006e0:	b508      	push	{r3, lr}

	while(1){

		OS_delay(handle_Queue1());
 80006e2:	f7ff fd75 	bl	80001d0 <handle_Queue1>
 80006e6:	f7ff fe33 	bl	8000350 <OS_delay>
	while(1){
 80006ea:	e7fa      	b.n	80006e2 <task5_handler+0x2>

080006ec <task6_handler>:
	}
}
//=====================================================================================================================
//=====================================================================================================================
void task6_handler(void)
{
 80006ec:	b570      	push	{r4, r5, r6, lr}
    uint32_t * pEXTI           = (uint32_t *) 0x40013C00;
	bool result ;
	while(1){
		result = false;
		while( result != true ) {
			result = put_Queue1_task((uint32_t)"\r\n ... BUTTON PRESSED ... !!!\r\n\r\n");
 80006ee:	4d11      	ldr	r5, [pc, #68]	@ (8000734 <task6_handler+0x48>)
		}
		OS_delay(20); // debounce delay

		while(1) {
			//if((GPIOA->IDR & 1 ) == 0) { break;}
			if((pGPIOA[4] & 1 ) == 0) { break;}
 80006f0:	4c11      	ldr	r4, [pc, #68]	@ (8000738 <task6_handler+0x4c>)
			result = put_Queue1_task((uint32_t)"\r\n ... BUTTON PRESSED ... !!!\r\n\r\n");
 80006f2:	4628      	mov	r0, r5
 80006f4:	f7ff fe08 	bl	8000308 <put_Queue1_task>
		while( result != true ) {
 80006f8:	2800      	cmp	r0, #0
 80006fa:	d0fa      	beq.n	80006f2 <task6_handler+0x6>
		OS_delay(20); // debounce delay
 80006fc:	2014      	movs	r0, #20
 80006fe:	f7ff fe27 	bl	8000350 <OS_delay>
			if((pGPIOA[4] & 1 ) == 0) { break;}
 8000702:	6923      	ldr	r3, [r4, #16]
 8000704:	07db      	lsls	r3, r3, #31
 8000706:	d413      	bmi.n	8000730 <task6_handler+0x44>
			OS_delay(10); // check every 10ms of button releasse
		}
		result = false;
		while( result != true ) {
			result = put_Queue1_task((uint32_t)"\r\n ....... BUTTON RELEASSED .......\r\n\r\n");
 8000708:	4e0c      	ldr	r6, [pc, #48]	@ (800073c <task6_handler+0x50>)
 800070a:	4630      	mov	r0, r6
 800070c:	f7ff fdfc 	bl	8000308 <put_Queue1_task>
		while( result != true ) {
 8000710:	2800      	cmp	r0, #0
 8000712:	d0fa      	beq.n	800070a <task6_handler+0x1e>
		}
		OS_delay(20);  // debounce delay
 8000714:	2014      	movs	r0, #20
 8000716:	f7ff fe1b 	bl	8000350 <OS_delay>
		//EXTI->PR = 1; // clear pending bit
		pEXTI[5]  = (1 << 0);
 800071a:	4b09      	ldr	r3, [pc, #36]	@ (8000740 <task6_handler+0x54>)
 800071c:	2201      	movs	r2, #1
 800071e:	f8c3 2c14 	str.w	r2, [r3, #3092]	@ 0xc14
//		EXTI->IMR = 1; // enable IRQ turn arround
		pEXTI[0] = 1;
 8000722:	f8c3 2c00 	str.w	r2, [r3, #3072]	@ 0xc00
		OS_delay(0xFFFFFFFF); // job is done - disable task
 8000726:	f04f 30ff 	mov.w	r0, #4294967295
 800072a:	f7ff fe11 	bl	8000350 <OS_delay>
		result = false;
 800072e:	e7e0      	b.n	80006f2 <task6_handler+0x6>
			OS_delay(10); // check every 10ms of button releasse
 8000730:	200a      	movs	r0, #10
 8000732:	e7e4      	b.n	80006fe <task6_handler+0x12>
 8000734:	080008f2 	.word	0x080008f2
 8000738:	40020000 	.word	0x40020000
 800073c:	08000914 	.word	0x08000914
 8000740:	40013000 	.word	0x40013000

08000744 <HardFault_Handler>:
}
//=====================================================================================================================

void HardFault_Handler(void)
{
	for(;;);
 8000744:	e7fe      	b.n	8000744 <HardFault_Handler>

08000746 <MemManage_Handler>:
}
//---
void MemManage_Handler(void)
{
	for(;;);
 8000746:	e7fe      	b.n	8000746 <MemManage_Handler>

08000748 <BusFault_Handler>:
}
//---
void BusFault_Handler(void)
{
	for(;;);
 8000748:	e7fe      	b.n	8000748 <BusFault_Handler>
	...

0800074c <EXTI0_IRQHandler>:
//=====================================================================================================================
void EXTI0_IRQHandler(void) {

    uint32_t * pEXTI           = (uint32_t *) 0x40013C00;
	//EXTI->PR = 1; // clear pending bit
	pEXTI[5]  = (1 << 0);
 800074c:	4b04      	ldr	r3, [pc, #16]	@ (8000760 <EXTI0_IRQHandler+0x14>)
 800074e:	2201      	movs	r2, #1
 8000750:	f8c3 2c14 	str.w	r2, [r3, #3092]	@ 0xc14
	//EXTI->IMR = 0; // disable IRQ by mask
	pEXTI[0]  = 0;
 8000754:	2200      	movs	r2, #0
 8000756:	f8c3 2c00 	str.w	r2, [r3, #3072]	@ 0xc00

	Unblock_Task(6); // enable Handling button debonce, releasse and back to enable Interrupts
 800075a:	2006      	movs	r0, #6
 800075c:	f7ff bdd0 	b.w	8000300 <Unblock_Task>
 8000760:	40013000 	.word	0x40013000

08000764 <uart_UART2_config>:
    uint32_t * pRCC_APB1_enr   = (uint32_t *)0x40023840;

    uint32_t * pGPIOA_Base     = (uint32_t *)0x40020000;
    uint32_t * pUART2_Base     = (uint32_t *)0x40004400;

    pRCC_APB1_enr[0] |= UART2_EN; // enable UART 2
 8000764:	4b13      	ldr	r3, [pc, #76]	@ (80007b4 <uart_UART2_config+0x50>)
 8000766:	f8d3 2840 	ldr.w	r2, [r3, #2112]	@ 0x840
 800076a:	f442 3200 	orr.w	r2, r2, #131072	@ 0x20000
 800076e:	f8c3 2840 	str.w	r2, [r3, #2112]	@ 0x840
    pRCC_AHB1_enr[0] |= GPIOA_EN; // enable GPIO A
 8000772:	f8d3 2830 	ldr.w	r2, [r3, #2096]	@ 0x830
 8000776:	f042 0201 	orr.w	r2, r2, #1
 800077a:	f8c3 2830 	str.w	r2, [r3, #2096]	@ 0x830

    __asm volatile("DSB");
 800077e:	f3bf 8f4f 	dsb	sy

    pGPIOA_Base[0] |= (2 << 4); // GPIOA->MODER Bits (5:4) = 1:0 --> PA2  as alternate function
    pGPIOA_Base[0] |= (2 << 6); // GPIOA->MODER Bits (7:6) = 1:0 --> Alternate function for PA3
 8000782:	f5a3 5340 	sub.w	r3, r3, #12288	@ 0x3000
 8000786:	681a      	ldr	r2, [r3, #0]
 8000788:	f042 02a0 	orr.w	r2, r2, #160	@ 0xa0
 800078c:	601a      	str	r2, [r3, #0]
    pGPIOA_Base[2] |= (3 << 4) | (3 << 6); //  GPIOA->OSPEEDR Bits [5:4] = 1:1 and Bits (7:6) = 1:1 --> High Speed for PIN PA2 and PA3
 800078e:	689a      	ldr	r2, [r3, #8]
 8000790:	f042 02f0 	orr.w	r2, r2, #240	@ 0xf0
 8000794:	609a      	str	r2, [r3, #8]
    pGPIOA_Base[8] |= (7 << 8);  // Bytes (11:10:9:8)   = 0:1:1:1 --> AF7 Alternate Function for USART2 at Pin PA2
    pGPIOA_Base[8] |= (7 << 12); // Bytes (15:14:13:12) = 0:1:1:1 --> AF7 Alternate Function for USART2 at Pin PA3
 8000796:	6a1a      	ldr	r2, [r3, #32]
 8000798:	f442 42ee 	orr.w	r2, r2, #30464	@ 0x7700
 800079c:	621a      	str	r2, [r3, #32]

    pUART2_Base[3] = 0; // reset all bits in USART2->CR1 (1 bits STOP Bit 14 = 0)
    pUART2_Base[3] |= (1 << 13); // UE Bit = 1 ... Enable UART 2
 800079e:	f04f 2340 	mov.w	r3, #1073758208	@ 0x40004000

    pUART2_Base[2]  = BRR_HI;    // Baud rate of 115200, PCLK = 16MHz UART2->BRR
 80007a2:	228a      	movs	r2, #138	@ 0x8a
 80007a4:	f8c3 2408 	str.w	r2, [r3, #1032]	@ 0x408
    pUART2_Base[3] |= (1 << 2) | (1 << 3); // Enable Receiver and Transmitter
 80007a8:	f242 020c 	movw	r2, #8204	@ 0x200c
 80007ac:	f8c3 240c 	str.w	r2, [r3, #1036]	@ 0x40c
}
 80007b0:	4770      	bx	lr
 80007b2:	bf00      	nop
 80007b4:	40023000 	.word	0x40023000

080007b8 <Reset_Handler>:

  .section .text.Reset_Handler
  .weak Reset_Handler
  .type Reset_Handler, %function
Reset_Handler:
  ldr   r0, =_estack
 80007b8:	480d      	ldr	r0, [pc, #52]	@ (80007f0 <LoopForever+0x2>)
  mov   sp, r0          /* set stack pointer */
 80007ba:	4685      	mov	sp, r0
/* Call the clock system initialization function.*/
  bl  SystemInit
 80007bc:	f3af 8000 	nop.w

/* Copy the data segment initializers from flash to SRAM */
  ldr r0, =_sdata
 80007c0:	480c      	ldr	r0, [pc, #48]	@ (80007f4 <LoopForever+0x6>)
  ldr r1, =_edata
 80007c2:	490d      	ldr	r1, [pc, #52]	@ (80007f8 <LoopForever+0xa>)
  ldr r2, =_sidata
 80007c4:	4a0d      	ldr	r2, [pc, #52]	@ (80007fc <LoopForever+0xe>)
  movs r3, #0
 80007c6:	2300      	movs	r3, #0
  b LoopCopyDataInit
 80007c8:	e002      	b.n	80007d0 <LoopCopyDataInit>

080007ca <CopyDataInit>:

CopyDataInit:
  ldr r4, [r2, r3]
 80007ca:	58d4      	ldr	r4, [r2, r3]
  str r4, [r0, r3]
 80007cc:	50c4      	str	r4, [r0, r3]
  adds r3, r3, #4
 80007ce:	3304      	adds	r3, #4

080007d0 <LoopCopyDataInit>:

LoopCopyDataInit:
  adds r4, r0, r3
 80007d0:	18c4      	adds	r4, r0, r3
  cmp r4, r1
 80007d2:	428c      	cmp	r4, r1
  bcc CopyDataInit
 80007d4:	d3f9      	bcc.n	80007ca <CopyDataInit>

/* Zero fill the bss segment. */
  ldr r2, =_sbss
 80007d6:	4a0a      	ldr	r2, [pc, #40]	@ (8000800 <LoopForever+0x12>)
  ldr r4, =_ebss
 80007d8:	4c0a      	ldr	r4, [pc, #40]	@ (8000804 <LoopForever+0x16>)
  movs r3, #0
 80007da:	2300      	movs	r3, #0
  b LoopFillZerobss
 80007dc:	e001      	b.n	80007e2 <LoopFillZerobss>

080007de <FillZerobss>:

FillZerobss:
  str  r3, [r2]
 80007de:	6013      	str	r3, [r2, #0]
  adds r2, r2, #4
 80007e0:	3204      	adds	r2, #4

080007e2 <LoopFillZerobss>:

LoopFillZerobss:
  cmp r2, r4
 80007e2:	42a2      	cmp	r2, r4
  bcc FillZerobss
 80007e4:	d3fb      	bcc.n	80007de <FillZerobss>


/* Call static constructors */
  bl __libc_init_array
 80007e6:	f000 f811 	bl	800080c <__libc_init_array>
/* Call the application's entry point.*/

  bl main
 80007ea:	f7ff fe9b 	bl	8000524 <main>

080007ee <LoopForever>:

LoopForever:
  b LoopForever
 80007ee:	e7fe      	b.n	80007ee <LoopForever>
  ldr   r0, =_estack
 80007f0:	20020000 	.word	0x20020000
  ldr r0, =_sdata
 80007f4:	20000000 	.word	0x20000000
  ldr r1, =_edata
 80007f8:	20000054 	.word	0x20000054
  ldr r2, =_sidata
 80007fc:	08000998 	.word	0x08000998
  ldr r2, =_sbss
 8000800:	20000054 	.word	0x20000054
  ldr r4, =_ebss
 8000804:	200000c4 	.word	0x200000c4

08000808 <ADC_IRQHandler>:
 * @retval : None
*/
  .section .text.Default_Handler,"ax",%progbits
Default_Handler:
Infinite_Loop:
  b Infinite_Loop
 8000808:	e7fe      	b.n	8000808 <ADC_IRQHandler>
	...

0800080c <__libc_init_array>:
 800080c:	b570      	push	{r4, r5, r6, lr}
 800080e:	4d0d      	ldr	r5, [pc, #52]	@ (8000844 <__libc_init_array+0x38>)
 8000810:	4c0d      	ldr	r4, [pc, #52]	@ (8000848 <__libc_init_array+0x3c>)
 8000812:	1b64      	subs	r4, r4, r5
 8000814:	10a4      	asrs	r4, r4, #2
 8000816:	2600      	movs	r6, #0
 8000818:	42a6      	cmp	r6, r4
 800081a:	d109      	bne.n	8000830 <__libc_init_array+0x24>
 800081c:	4d0b      	ldr	r5, [pc, #44]	@ (800084c <__libc_init_array+0x40>)
 800081e:	4c0c      	ldr	r4, [pc, #48]	@ (8000850 <__libc_init_array+0x44>)
 8000820:	f000 f818 	bl	8000854 <_init>
 8000824:	1b64      	subs	r4, r4, r5
 8000826:	10a4      	asrs	r4, r4, #2
 8000828:	2600      	movs	r6, #0
 800082a:	42a6      	cmp	r6, r4
 800082c:	d105      	bne.n	800083a <__libc_init_array+0x2e>
 800082e:	bd70      	pop	{r4, r5, r6, pc}
 8000830:	f855 3b04 	ldr.w	r3, [r5], #4
 8000834:	4798      	blx	r3
 8000836:	3601      	adds	r6, #1
 8000838:	e7ee      	b.n	8000818 <__libc_init_array+0xc>
 800083a:	f855 3b04 	ldr.w	r3, [r5], #4
 800083e:	4798      	blx	r3
 8000840:	3601      	adds	r6, #1
 8000842:	e7f2      	b.n	800082a <__libc_init_array+0x1e>
 8000844:	08000990 	.word	0x08000990
 8000848:	08000990 	.word	0x08000990
 800084c:	08000990 	.word	0x08000990
 8000850:	08000994 	.word	0x08000994

08000854 <_init>:
 8000854:	b5f8      	push	{r3, r4, r5, r6, r7, lr}
 8000856:	bf00      	nop
 8000858:	bcf8      	pop	{r3, r4, r5, r6, r7}
 800085a:	bc08      	pop	{r3}
 800085c:	469e      	mov	lr, r3
 800085e:	4770      	bx	lr

08000860 <_fini>:
 8000860:	b5f8      	push	{r3, r4, r5, r6, r7, lr}
 8000862:	bf00      	nop
 8000864:	bcf8      	pop	{r3, r4, r5, r6, r7}
 8000866:	bc08      	pop	{r3}
 8000868:	469e      	mov	lr, r3
 800086a:	4770      	bx	lr
